; Function Attrs: nounwind uwtable
define noundef zeroext i1 @duckdb_je_pa_shard_enable_hpa(ptr noundef %0, ptr noundef %1, ptr noundef %2, ptr noundef %3) local_unnamed_addr #0 {
  %5 = getelementptr inbounds nuw i8, ptr %1, i64 62384
  %6 = load ptr, ptr %1, align 8, !tbaa !52
  %7 = getelementptr inbounds nuw i8, ptr %1, i64 68272
  %8 = load ptr, ptr %7, align 8, !tbaa !53
  %9 = getelementptr inbounds nuw i8, ptr %1, i64 68280
  %10 = load ptr, ptr %9, align 8, !tbaa !54
  %11 = getelementptr inbounds nuw i8, ptr %1, i64 68104
  %12 = getelementptr inbounds nuw i8, ptr %1, i64 68248
  %13 = load i32, ptr %12, align 8, !tbaa !3
  %14 = tail call zeroext i1 @duckdb_je_hpa_shard_init(ptr noundef nonnull %5, ptr noundef %6, ptr noundef %8, ptr noundef %10, ptr noundef nonnull %11, i32 noundef %13, ptr noundef %2) #4
  br i1 %14, label %22, label %15

15:                                               ; preds = %4
  %16 = getelementptr inbounds nuw i8, ptr %1, i64 62264
  %17 = load ptr, ptr %9, align 8, !tbaa !54
  %18 = tail call zeroext i1 @duckdb_je_sec_init(ptr noundef %0, ptr noundef nonnull %16, ptr noundef %17, ptr noundef nonnull %5, ptr noundef %3) #4
  br i1 %18, label %22, label %19

19:                                               ; preds = %15
  %20 = getelementptr inbounds nuw i8, ptr %1, i64 17
  store i8 1, ptr %20, align 1, !tbaa !49
  %21 = getelementptr inbounds nuw i8, ptr %1, i64 16
  store atomic i8 1, ptr %21 monotonic, align 1
  br label %22

22:                                               ; preds = %15, %4, %19
  %.0 = phi i1 [ false, %19 ], [ true, %4 ], [ true, %15 ]
  ret i1 %.0
}